; Function Attrs: mustprogress uwtable
define internal fastcc void @_ZZNK8facebook5velox9functions12_GLOBAL__N_121TransformKeysFunction5applyERKNS0_17SelectivityVectorERSt6vectorISt10shared_ptrINS0_10BaseVectorEESaISA_EERKS8_IKNS0_4TypeEERNS0_4exec7EvalCtxERSA_ENKUliE_clEi(ptr nocapture noundef nonnull readonly align 8 dereferenceable(24) %this, i32 noundef %keyRow) unnamed_addr #0 align 2 personality ptr @__gxx_personality_v0 {
entry:
  %ref.tmp = alloca %"class.std::__exception_ptr::exception_ptr", align 8
  %0 = load ptr, ptr %this, align 8
  %1 = load ptr, ptr %0, align 8
  %vtable = load ptr, ptr %1, align 8
  %vfn = getelementptr inbounds i8, ptr %vtable, i64 32
  %2 = load ptr, ptr %vfn, align 8
  %call2 = invoke noundef zeroext i1 %2(ptr noundef nonnull align 8 dereferenceable(99) %1, i32 noundef %keyRow)
          to label %invoke.cont unwind label %lpad

invoke.cont:                                      ; preds = %entry
  br i1 %call2, label %if.then, label %if.end

if.then:                                          ; preds = %invoke.cont
  tail call void @llvm.trap()
  unreachable

lpad:                                             ; preds = %if.end, %entry
  %3 = landingpad { ptr, i32 }
          catch ptr @_ZTIN8facebook5velox14VeloxExceptionE
  %4 = extractvalue { ptr, i32 } %3, 1
  %5 = tail call i32 @llvm.eh.typeid.for(ptr nonnull @_ZTIN8facebook5velox14VeloxExceptionE) #21
  %matches = icmp eq i32 %4, %5
  br i1 %matches, label %catch, label %eh.resume

catch:                                            ; preds = %lpad
  %6 = extractvalue { ptr, i32 } %3, 0
  %7 = tail call ptr @__cxa_begin_catch(ptr %6) #21
  %8 = getelementptr inbounds i8, ptr %this, i64 8
  %9 = load ptr, ptr %8, align 8
  %10 = getelementptr inbounds i8, ptr %this, i64 16
  %11 = load ptr, ptr %10, align 8
  %12 = load ptr, ptr %11, align 8
  %idxprom = sext i32 %keyRow to i64
  %arrayidx = getelementptr inbounds i32, ptr %12, i64 %idxprom
  %13 = load i32, ptr %arrayidx, align 4
  call void @_ZSt17current_exceptionv(ptr nonnull sret(%"class.std::__exception_ptr::exception_ptr") align 8 %ref.tmp) #21
  invoke void @_ZN8facebook5velox4exec7EvalCtx22setVeloxExceptionErrorEiRKNSt15__exception_ptr13exception_ptrE(ptr noundef nonnull align 8 dereferenceable(104) %9, i32 noundef %13, ptr noundef nonnull align 8 dereferenceable(8) %ref.tmp)
          to label %invoke.cont14 unwind label %lpad13

invoke.cont14:                                    ; preds = %catch
  %14 = load ptr, ptr %ref.tmp, align 8
  %tobool.not.i = icmp eq ptr %14, null
  br i1 %tobool.not.i, label %_ZNSt15__exception_ptr13exception_ptrD2Ev.exit, label %if.then.i

if.then.i:                                        ; preds = %invoke.cont14
  call void @_ZNSt15__exception_ptr13exception_ptr10_M_releaseEv(ptr noundef nonnull align 8 dereferenceable(8) %ref.tmp) #21
  br label %_ZNSt15__exception_ptr13exception_ptrD2Ev.exit

_ZNSt15__exception_ptr13exception_ptrD2Ev.exit:   ; preds = %invoke.cont14, %if.then.i
  call void @__cxa_end_catch()
  br label %try.cont

try.cont:                                         ; preds = %invoke.cont7, %_ZNSt15__exception_ptr13exception_ptrD2Ev.exit
  ret void

if.end:                                           ; preds = %invoke.cont
  %15 = load ptr, ptr %this, align 8
  %16 = load ptr, ptr %15, align 8
  %vtable5 = load ptr, ptr %16, align 8
  %vfn6 = getelementptr inbounds i8, ptr %vtable5, i64 40
  %17 = load ptr, ptr %vfn6, align 8
  %call8 = invoke noundef zeroext i1 %17(ptr noundef nonnull align 8 dereferenceable(99) %16, i32 noundef %keyRow)
          to label %invoke.cont7 unwind label %lpad

invoke.cont7:                                     ; preds = %if.end
  br i1 %call8, label %if.then11, label %try.cont

if.then11:                                        ; preds = %invoke.cont7
  tail call void @llvm.trap()
  unreachable

lpad13:                                           ; preds = %catch
  %18 = landingpad { ptr, i32 }
          cleanup
  %19 = load ptr, ptr %ref.tmp, align 8
  %tobool.not.i4 = icmp eq ptr %19, null
  br i1 %tobool.not.i4, label %_ZNSt15__exception_ptr13exception_ptrD2Ev.exit6, label %if.then.i5

if.then.i5:                                       ; preds = %lpad13
  call void @_ZNSt15__exception_ptr13exception_ptr10_M_releaseEv(ptr noundef nonnull align 8 dereferenceable(8) %ref.tmp) #21
  br label %_ZNSt15__exception_ptr13exception_ptrD2Ev.exit6

_ZNSt15__exception_ptr13exception_ptrD2Ev.exit6:  ; preds = %lpad13, %if.then.i5
  invoke void @__cxa_end_catch()
          to label %eh.resume unwind label %terminate.lpad

eh.resume:                                        ; preds = %_ZNSt15__exception_ptr13exception_ptrD2Ev.exit6, %lpad
  %lpad.val18.merged = phi { ptr, i32 } [ %18, %_ZNSt15__exception_ptr13exception_ptrD2Ev.exit6 ], [ %3, %lpad ]
  resume { ptr, i32 } %lpad.val18.merged

terminate.lpad:                                   ; preds = %_ZNSt15__exception_ptr13exception_ptrD2Ev.exit6
  %20 = landingpad { ptr, i32 }
          catch ptr null
  %21 = extractvalue { ptr, i32 } %20, 0
  call void @__clang_call_terminate(ptr %21) #22
  unreachable
}